; Function Attrs: mustprogress uwtable
define hidden void @_ZN5zxing9Binarizer17getInvertedMatrixERNS_12ErrorHandlerE(ptr dead_on_unwind noalias writable writeonly sret(%"class.zxing::Ref.0") align 8 captures(none) %0, ptr noundef nonnull align 8 captures(none) dereferenceable(72) %1, ptr noundef nonnull align 8 dereferenceable(48) %2) unnamed_addr #0 align 2 personality ptr @__gxx_personality_v0 {
  %4 = alloca %"class.zxing::Ref.0", align 8
  %5 = getelementptr inbounds nuw i8, ptr %1, i64 48
  %6 = load ptr, ptr %5, align 8
  %.not = icmp eq ptr %6, null
  br i1 %.not, label %_ZN5zxing3RefINS_9BitMatrixEEC2ERKS2_.exit12, label %7

7:                                                ; preds = %3
  %8 = getelementptr inbounds nuw i8, ptr %1, i64 64
  %9 = load ptr, ptr %8, align 8
  %10 = icmp eq ptr %9, null
  br i1 %10, label %11, label %.thread

11:                                               ; preds = %7
  %12 = tail call noalias noundef nonnull dereferenceable(352) ptr @_Znwm(i64 noundef 352) #12
  %13 = invoke noundef i32 @_ZNK5zxing9BitMatrix8getWidthEv(ptr noundef nonnull align 8 dereferenceable(346) %6)
          to label %14 unwind label %48

14:                                               ; preds = %11
  %15 = load ptr, ptr %5, align 8
  %16 = invoke noundef i32 @_ZNK5zxing9BitMatrix9getHeightEv(ptr noundef nonnull align 8 dereferenceable(346) %15)
          to label %17 unwind label %48

17:                                               ; preds = %14
  invoke void @_ZN5zxing9BitMatrixC1EiiRNS_12ErrorHandlerE(ptr noundef nonnull align 8 dereferenceable(346) %12, i32 noundef %13, i32 noundef %16, ptr noundef nonnull align 8 dereferenceable(48) %2)
          to label %18 unwind label %48

18:                                               ; preds = %17
  %19 = getelementptr inbounds nuw i8, ptr %12, i64 8
  %20 = load i32, ptr %19, align 8
  %21 = add i32 %20, 1
  store i32 %21, ptr %19, align 8
  %22 = load ptr, ptr %8, align 8
  %.not5.i.i = icmp eq ptr %22, null
  br i1 %.not5.i.i, label %_ZN5zxing3RefINS_9BitMatrixEEaSEPS1_.exit, label %23

23:                                               ; preds = %18
  %24 = getelementptr inbounds nuw i8, ptr %22, i64 8
  %25 = load i32, ptr %24, align 8
  %26 = add i32 %25, -1
  store i32 %26, ptr %24, align 8
  %27 = icmp eq i32 %26, 0
  br i1 %27, label %28, label %_ZN5zxing3RefINS_9BitMatrixEEaSEPS1_.exit

28:                                               ; preds = %23
  store i32 -559026175, ptr %24, align 8
  %29 = load ptr, ptr %22, align 8
  %30 = getelementptr inbounds nuw i8, ptr %29, i64 8
  %31 = load ptr, ptr %30, align 8
  tail call void %31(ptr noundef nonnull align 8 dereferenceable(12) %22) #10
  br label %_ZN5zxing3RefINS_9BitMatrixEEaSEPS1_.exit

_ZN5zxing3RefINS_9BitMatrixEEaSEPS1_.exit:        ; preds = %18, %23, %28
  store ptr %12, ptr %8, align 8
  %32 = load ptr, ptr %5, align 8
  %.not.i.i = icmp eq ptr %32, null
  br i1 %.not.i.i, label %_ZN5zxing3RefINS_9BitMatrixEEC2ERKS2_.exit, label %33

33:                                               ; preds = %_ZN5zxing3RefINS_9BitMatrixEEaSEPS1_.exit
  %34 = getelementptr inbounds nuw i8, ptr %32, i64 8
  %35 = load i32, ptr %34, align 8
  %36 = add i32 %35, 1
  store i32 %36, ptr %34, align 8
  br label %_ZN5zxing3RefINS_9BitMatrixEEC2ERKS2_.exit

_ZN5zxing3RefINS_9BitMatrixEEC2ERKS2_.exit:       ; preds = %33, %_ZN5zxing3RefINS_9BitMatrixEEaSEPS1_.exit
  store ptr %32, ptr %4, align 8
  invoke void @_ZN5zxing9BitMatrix6copyOfENS_3RefIS0_EERNS_12ErrorHandlerE(ptr noundef nonnull align 8 dereferenceable(346) %12, ptr noundef nonnull %4, ptr noundef nonnull align 8 dereferenceable(48) %2)
          to label %37 unwind label %50

37:                                               ; preds = %_ZN5zxing3RefINS_9BitMatrixEEC2ERKS2_.exit
  %38 = load ptr, ptr %4, align 8
  %.not.i = icmp eq ptr %38, null
  br i1 %.not.i, label %62, label %39

39:                                               ; preds = %37
  %40 = getelementptr inbounds nuw i8, ptr %38, i64 8
  %41 = load i32, ptr %40, align 8
  %42 = add i32 %41, -1
  store i32 %42, ptr %40, align 8
  %43 = icmp eq i32 %42, 0
  br i1 %43, label %44, label %62

44:                                               ; preds = %39
  store i32 -559026175, ptr %40, align 8
  %45 = load ptr, ptr %38, align 8
  %46 = getelementptr inbounds nuw i8, ptr %45, i64 8
  %47 = load ptr, ptr %46, align 8
  call void %47(ptr noundef nonnull align 8 dereferenceable(12) %38) #10
  br label %62

48:                                               ; preds = %17, %14, %11
  %49 = landingpad { ptr, i32 }
          cleanup
  tail call void @_ZdlPv(ptr noundef nonnull %12) #11
  br label %_ZN5zxing3RefINS_9BitMatrixEED2Ev.exit8

50:                                               ; preds = %_ZN5zxing3RefINS_9BitMatrixEEC2ERKS2_.exit
  %51 = landingpad { ptr, i32 }
          cleanup
  %52 = load ptr, ptr %4, align 8
  %.not.i7 = icmp eq ptr %52, null
  br i1 %.not.i7, label %_ZN5zxing3RefINS_9BitMatrixEED2Ev.exit8, label %53

53:                                               ; preds = %50
  %54 = getelementptr inbounds nuw i8, ptr %52, i64 8
  %55 = load i32, ptr %54, align 8
  %56 = add i32 %55, -1
  store i32 %56, ptr %54, align 8
  %57 = icmp eq i32 %56, 0
  br i1 %57, label %58, label %_ZN5zxing3RefINS_9BitMatrixEED2Ev.exit8

58:                                               ; preds = %53
  store i32 -559026175, ptr %54, align 8
  %59 = load ptr, ptr %52, align 8
  %60 = getelementptr inbounds nuw i8, ptr %59, i64 8
  %61 = load ptr, ptr %60, align 8
  call void %61(ptr noundef nonnull align 8 dereferenceable(12) %52) #10
  br label %_ZN5zxing3RefINS_9BitMatrixEED2Ev.exit8

62:                                               ; preds = %44, %39, %37
  %63 = load ptr, ptr %8, align 8
  call void @_ZN5zxing9BitMatrix7flipAllEv(ptr noundef nonnull align 8 dereferenceable(346) %63)
  %.pr = load ptr, ptr %8, align 8
  %.not.i.i9 = icmp eq ptr %.pr, null
  br i1 %.not.i.i9, label %_ZN5zxing3RefINS_9BitMatrixEEC2ERKS2_.exit12, label %.thread

.thread:                                          ; preds = %7, %62
  %64 = phi ptr [ %.pr, %62 ], [ %9, %7 ]
  %65 = getelementptr inbounds nuw i8, ptr %64, i64 8
  %66 = load i32, ptr %65, align 8
  %67 = add i32 %66, 1
  store i32 %67, ptr %65, align 8
  br label %_ZN5zxing3RefINS_9BitMatrixEEC2ERKS2_.exit12

_ZN5zxing3RefINS_9BitMatrixEEC2ERKS2_.exit12:     ; preds = %62, %.thread, %3
  %storemerge = phi ptr [ null, %3 ], [ null, %62 ], [ %64, %.thread ]
  store ptr %storemerge, ptr %0, align 8
  ret void

_ZN5zxing3RefINS_9BitMatrixEED2Ev.exit8:          ; preds = %58, %53, %50, %48
  %.pn = phi { ptr, i32 } [ %49, %48 ], [ %51, %50 ], [ %51, %53 ], [ %51, %58 ]
  resume { ptr, i32 } %.pn
}